target datalayout = "e-m:e-p270:32:32-p271:32:32-p272:64:64-i64:64-i128:128-f80:128-n8:16:32:64-S128"
target triple = "x86_64-pc-linux-gnu"

%struct.Abc_Ntk_t_ = type { i32, i32, ptr, ptr, ptr, ptr, ptr, ptr, ptr, ptr, ptr, ptr, ptr, [11 x i32], i32, i32, i32, i32, ptr, i32, ptr, ptr, i32, i32, i32, double, i32, %struct.Vec_Int_t_, ptr, ptr, ptr, ptr, ptr, float, i32, ptr, ptr, ptr, ptr, ptr, ptr, ptr, ptr, ptr, ptr, ptr, ptr, ptr, ptr, ptr, ptr, ptr, ptr, ptr, ptr, ptr, ptr }
%struct.Vec_Int_t_ = type { i32, i32, ptr }
%struct.Abc_Obj_t_ = type { ptr, ptr, i32, i32, %struct.Vec_Int_t_, %struct.Vec_Int_t_, %union.anon, %union.anon.0 }
%union.anon = type { ptr }
%union.anon.0 = type { ptr }
%struct.Vec_Ptr_t_ = type { i32, i32, ptr }

@.str.4 = private unnamed_addr constant [2 x i8] c"\0A\00", align 1
@.str.13 = private unnamed_addr constant [12 x i8] c"%-10s >    \00", align 1
@.str.14 = private unnamed_addr constant [4 x i8] c" %s\00", align 1
@.str.15 = private unnamed_addr constant [10 x i8] c" ([%s_to_\00", align 1
@.str.16 = private unnamed_addr constant [10 x i8] c"%s] = %d)\00", align 1
@.str.17 = private unnamed_addr constant [2 x i8] c",\00", align 1
@.str.18 = private unnamed_addr constant [2 x i8] c".\00", align 1

; Function Attrs: inlinehint nounwind uwtable
define internal ptr @Abc_ObjFanout(ptr noundef %0, i32 noundef %1) #4 {
  %3 = alloca ptr, align 8
  %4 = alloca i32, align 4
  store ptr %0, ptr %3, align 8, !tbaa !29
  store i32 %1, ptr %4, align 4, !tbaa !10
  %5 = load ptr, ptr %3, align 8, !tbaa !29
  %6 = getelementptr inbounds nuw %struct.Abc_Obj_t_, ptr %5, i32 0, i32 0
  %7 = load ptr, ptr %6, align 8, !tbaa !58
  %8 = getelementptr inbounds nuw %struct.Abc_Ntk_t_, ptr %7, i32 0, i32 5
  %9 = load ptr, ptr %8, align 8, !tbaa !33
  %10 = getelementptr inbounds nuw %struct.Vec_Ptr_t_, ptr %9, i32 0, i32 2
  %11 = load ptr, ptr %10, align 8, !tbaa !59
  %12 = load ptr, ptr %3, align 8, !tbaa !29
  %13 = getelementptr inbounds nuw %struct.Abc_Obj_t_, ptr %12, i32 0, i32 5
  %14 = getelementptr inbounds nuw %struct.Vec_Int_t_, ptr %13, i32 0, i32 2
  %15 = load ptr, ptr %14, align 8, !tbaa !63
  %16 = load i32, ptr %4, align 4, !tbaa !10
  %17 = sext i32 %16 to i64
  %18 = getelementptr inbounds i32, ptr %15, i64 %17
  %19 = load i32, ptr %18, align 4, !tbaa !10
  %20 = sext i32 %19 to i64
  %21 = getelementptr inbounds ptr, ptr %11, i64 %20
  %22 = load ptr, ptr %21, align 8, !tbaa !61
  ret ptr %22
}

; Function Attrs: inlinehint nounwind uwtable
define internal i32 @Abc_ObjFanoutNum(ptr noundef %0) #4 {
  %2 = alloca ptr, align 8
  store ptr %0, ptr %2, align 8, !tbaa !29
  %3 = load ptr, ptr %2, align 8, !tbaa !29
  %4 = getelementptr inbounds nuw %struct.Abc_Obj_t_, ptr %3, i32 0, i32 5
  %5 = getelementptr inbounds nuw %struct.Vec_Int_t_, ptr %4, i32 0, i32 1
  %6 = load i32, ptr %5, align 4, !tbaa !36
  ret i32 %6
}

; Function Attrs: nounwind uwtable
define internal void @Io_WriteListEdge(ptr noundef %0, ptr noundef %1) #0 {
  %3 = alloca ptr, align 8
  %4 = alloca ptr, align 8
  %5 = alloca ptr, align 8
  %6 = alloca i32, align 4
  store ptr %0, ptr %3, align 8, !tbaa !12
  store ptr %1, ptr %4, align 8, !tbaa !29
  call void @llvm.lifetime.start.p0(i64 8, ptr %5) #5
  call void @llvm.lifetime.start.p0(i64 4, ptr %6) #5
  %7 = load ptr, ptr %3, align 8, !tbaa !12
  %8 = load ptr, ptr %4, align 8, !tbaa !29
  %9 = call ptr @Abc_ObjName(ptr noundef %8)
  %10 = call i32 (ptr, ptr, ...) @fprintf(ptr noundef %7, ptr noundef @.str.13, ptr noundef %9) #5
  store i32 0, ptr %6, align 4, !tbaa !10
  br label %11

11:                                               ; preds = %44, %2
  %12 = load i32, ptr %6, align 4, !tbaa !10
  %13 = load ptr, ptr %4, align 8, !tbaa !29
  %14 = call i32 @Abc_ObjFanoutNum(ptr noundef %13)
  %15 = icmp slt i32 %12, %14
  br i1 %15, label %16, label %20

16:                                               ; preds = %11
  %17 = load ptr, ptr %4, align 8, !tbaa !29
  %18 = load i32, ptr %6, align 4, !tbaa !10
  %19 = call ptr @Abc_ObjFanout(ptr noundef %17, i32 noundef %18)
  store ptr %19, ptr %5, align 8, !tbaa !29
  br label %20

20:                                               ; preds = %16, %11
  %21 = phi i1 [ false, %11 ], [ true, %16 ]
  br i1 %21, label %22, label %47

22:                                               ; preds = %20
  %23 = load ptr, ptr %3, align 8, !tbaa !12
  %24 = load ptr, ptr %5, align 8, !tbaa !29
  %25 = call ptr @Abc_ObjName(ptr noundef %24)
  %26 = call i32 (ptr, ptr, ...) @fprintf(ptr noundef %23, ptr noundef @.str.14, ptr noundef %25) #5
  %27 = load ptr, ptr %3, align 8, !tbaa !12
  %28 = load ptr, ptr %4, align 8, !tbaa !29
  %29 = call ptr @Abc_ObjName(ptr noundef %28)
  %30 = call i32 (ptr, ptr, ...) @fprintf(ptr noundef %27, ptr noundef @.str.15, ptr noundef %29) #5
  %31 = load ptr, ptr %3, align 8, !tbaa !12
  %32 = load ptr, ptr %5, align 8, !tbaa !29
  %33 = call ptr @Abc_ObjName(ptr noundef %32)
  %34 = call i32 (ptr, ptr, ...) @fprintf(ptr noundef %31, ptr noundef @.str.16, ptr noundef %33, i32 noundef 0) #5
  %35 = load i32, ptr %6, align 4, !tbaa !10
  %36 = load ptr, ptr %4, align 8, !tbaa !29
  %37 = call i32 @Abc_ObjFanoutNum(ptr noundef %36)
  %38 = sub nsw i32 %37, 1
  %39 = icmp ne i32 %35, %38
  br i1 %39, label %40, label %43

40:                                               ; preds = %22
  %41 = load ptr, ptr %3, align 8, !tbaa !12
  %42 = call i32 (ptr, ptr, ...) @fprintf(ptr noundef %41, ptr noundef @.str.17) #5
  br label %43

43:                                               ; preds = %40, %22
  br label %44

44:                                               ; preds = %43
  %45 = load i32, ptr %6, align 4, !tbaa !10
  %46 = add nsw i32 %45, 1
  store i32 %46, ptr %6, align 4, !tbaa !10
  br label %11, !llvm.loop !38

47:                                               ; preds = %20
  %48 = load ptr, ptr %3, align 8, !tbaa !12
  %49 = call i32 (ptr, ptr, ...) @fprintf(ptr noundef %48, ptr noundef @.str.18) #5
  %50 = load ptr, ptr %3, align 8, !tbaa !12
  %51 = call i32 (ptr, ptr, ...) @fprintf(ptr noundef %50, ptr noundef @.str.4) #5
  call void @llvm.lifetime.end.p0(i64 4, ptr %6) #5
  call void @llvm.lifetime.end.p0(i64 8, ptr %5) #5
  ret void
}