; Function Attrs: nounwind uwtable
define internal fastcc void @Io_WriteListEdge(ptr noundef nonnull captures(none) %0, ptr noundef %1) unnamed_addr #0 {
  %3 = tail call ptr @Abc_ObjName(ptr noundef %1) #4
  %4 = tail call i32 (ptr, ptr, ...) @fprintf(ptr noundef nonnull %0, ptr noundef nonnull @.str.13, ptr noundef %3) #4
  %5 = getelementptr i8, ptr %1, i64 44
  %.val1922 = load i32, ptr %5, align 4, !tbaa !26
  %6 = icmp sgt i32 %.val1922, 0
  br i1 %6, label %.lr.ph, label %.critedge

.lr.ph:                                           ; preds = %2
  %7 = getelementptr i8, ptr %1, i64 48
  br label %8

8:                                                ; preds = %.lr.ph, %25
  %indvars.iv = phi i64 [ 0, %.lr.ph ], [ %indvars.iv.next, %25 ]
  %.val20 = load ptr, ptr %1, align 8, !tbaa !43
  %.val21 = load ptr, ptr %7, align 8, !tbaa !44
  %9 = getelementptr i8, ptr %.val20, i64 32
  %.val20.val = load ptr, ptr %9, align 8, !tbaa !32
  %10 = getelementptr i8, ptr %.val20.val, i64 8
  %.val20.val.val = load ptr, ptr %10, align 8, !tbaa !33
  %11 = getelementptr inbounds nuw i32, ptr %.val21, i64 %indvars.iv
  %12 = load i32, ptr %11, align 4, !tbaa !45
  %13 = sext i32 %12 to i64
  %14 = getelementptr inbounds ptr, ptr %.val20.val.val, i64 %13
  %15 = load ptr, ptr %14, align 8, !tbaa !34
  %16 = tail call ptr @Abc_ObjName(ptr noundef %15) #4
  %17 = tail call i32 (ptr, ptr, ...) @fprintf(ptr noundef nonnull %0, ptr noundef nonnull @.str.14, ptr noundef %16) #4
  %18 = tail call ptr @Abc_ObjName(ptr noundef nonnull %1) #4
  %19 = tail call i32 (ptr, ptr, ...) @fprintf(ptr noundef nonnull %0, ptr noundef nonnull @.str.15, ptr noundef %18) #4
  %20 = tail call ptr @Abc_ObjName(ptr noundef %15) #4
  %21 = tail call i32 (ptr, ptr, ...) @fprintf(ptr noundef nonnull %0, ptr noundef nonnull @.str.16, ptr noundef %20, i32 noundef 0) #4
  %.val = load i32, ptr %5, align 4, !tbaa !26
  %22 = add nsw i32 %.val, -1
  %23 = zext i32 %22 to i64
  %.not = icmp eq i64 %indvars.iv, %23
  br i1 %.not, label %25, label %24

24:                                               ; preds = %8
  %fputc18 = tail call i32 @fputc(i32 44, ptr nonnull %0)
  %.val19.pre = load i32, ptr %5, align 4, !tbaa !26
  br label %25

25:                                               ; preds = %8, %24
  %.val19 = phi i32 [ %.val, %8 ], [ %.val19.pre, %24 ]
  %indvars.iv.next = add nuw nsw i64 %indvars.iv, 1
  %26 = sext i32 %.val19 to i64
  %27 = icmp slt i64 %indvars.iv.next, %26
  br i1 %27, label %8, label %.critedge, !llvm.loop !46

.critedge:                                        ; preds = %25, %2
  %fputc = tail call i32 @fputc(i32 46, ptr nonnull %0)
  %fputc17 = tail call i32 @fputc(i32 10, ptr nonnull %0)
  ret void
}